; Function Attrs: mustprogress uwtable
define noundef ptr @_ZNK2mu10ParserBase14ValidOprtCharsEv(ptr noundef nonnull align 8 dereferenceable(596) %0) local_unnamed_addr #7 align 2 personality ptr @__gxx_personality_v0 {
  %2 = alloca %"class.std::__cxx11::basic_stringstream", align 8
  %3 = alloca %"class.std::__cxx11::basic_string", align 8
  %4 = getelementptr inbounds i8, ptr %0, i64 504
  %5 = tail call noundef i64 @_ZNKSt7__cxx1112basic_stringIcSt11char_traitsIcESaIcEE4sizeEv(ptr noundef nonnull align 8 dereferenceable(32) %4) #23
  %.not = icmp eq i64 %5, 0
  br i1 %.not, label %6, label %29

6:                                                ; preds = %1
  call void @_ZNSt7__cxx1118basic_stringstreamIcSt11char_traitsIcESaIcEEC1Ev(ptr noundef nonnull align 8 dereferenceable(128) %2)
  %7 = getelementptr inbounds i8, ptr %2, i64 16
  %8 = invoke noundef nonnull align 8 dereferenceable(8) ptr @_ZStlsISt11char_traitsIcEERSt13basic_ostreamIcT_ES5_PKc(ptr noundef nonnull align 8 dereferenceable(8) %7, ptr noundef nonnull @.str.35)
          to label %9 unwind label %22

9:                                                ; preds = %6
  %10 = invoke noundef nonnull align 8 dereferenceable(8) ptr @_ZStlsISt11char_traitsIcEERSt13basic_ostreamIcT_ES5_PKc(ptr noundef nonnull align 8 dereferenceable(8) %8, ptr noundef nonnull @.str.32)
          to label %11 unwind label %22

11:                                               ; preds = %9
  %12 = invoke noundef nonnull align 8 dereferenceable(8) ptr @_ZStlsISt11char_traitsIcEERSt13basic_ostreamIcT_ES5_PKc(ptr noundef nonnull align 8 dereferenceable(8) %10, ptr noundef nonnull @.str.33)
          to label %13 unwind label %22

13:                                               ; preds = %11
  %14 = invoke noundef nonnull align 8 dereferenceable(8) ptr @_ZNSolsEi(ptr noundef nonnull align 8 dereferenceable(8) %12, i32 noundef 483)
          to label %15 unwind label %22

15:                                               ; preds = %13
  %16 = invoke noundef nonnull align 8 dereferenceable(8) ptr @_ZStlsISt11char_traitsIcEERSt13basic_ostreamIcT_ES5_PKc(ptr noundef nonnull align 8 dereferenceable(8) %14, ptr noundef nonnull @.str.34)
          to label %17 unwind label %22

17:                                               ; preds = %15
  %18 = call ptr @__cxa_allocate_exception(i64 112) #23
  invoke void @_ZNKSt7__cxx1118basic_stringstreamIcSt11char_traitsIcESaIcEE3strEv(ptr dead_on_unwind nonnull writable sret(%"class.std::__cxx11::basic_string") align 8 %3, ptr noundef nonnull align 8 dereferenceable(128) %2)
          to label %19 unwind label %.thread

19:                                               ; preds = %17
  invoke void @_ZN2mu11ParserErrorC1ENS_11EErrorCodesEiRKNSt7__cxx1112basic_stringIcSt11char_traitsIcESaIcEEE(ptr noundef nonnull align 8 dereferenceable(112) %18, i32 noundef 39, i32 noundef -1, ptr noundef nonnull align 8 dereferenceable(32) %3)
          to label %21 unwind label %.thread12

.thread12:                                        ; preds = %19
  %20 = landingpad { ptr, i32 }
          cleanup
  call void @_ZNSt7__cxx1112basic_stringIcSt11char_traitsIcESaIcEED1Ev(ptr noundef nonnull align 8 dereferenceable(32) %3) #23
  br label %27

21:                                               ; preds = %19
  invoke void @__cxa_throw(ptr nonnull %18, ptr nonnull @_ZTIN2mu11ParserErrorE, ptr nonnull @_ZN2mu11ParserErrorD1Ev) #32
          to label %31 unwind label %25

22:                                               ; preds = %15, %13, %11, %9, %6
  %23 = landingpad { ptr, i32 }
          cleanup
  br label %28

.thread:                                          ; preds = %17
  %24 = landingpad { ptr, i32 }
          cleanup
  br label %27

25:                                               ; preds = %21
  %26 = landingpad { ptr, i32 }
          cleanup
  call void @_ZNSt7__cxx1112basic_stringIcSt11char_traitsIcESaIcEED1Ev(ptr noundef nonnull align 8 dereferenceable(32) %3) #23
  br label %28

27:                                               ; preds = %.thread12, %.thread
  %.pn11 = phi { ptr, i32 } [ %24, %.thread ], [ %20, %.thread12 ]
  call void @__cxa_free_exception(ptr %18) #23
  br label %28

28:                                               ; preds = %25, %27, %22
  %.pn.pn = phi { ptr, i32 } [ %.pn11, %27 ], [ %26, %25 ], [ %23, %22 ]
  call void @_ZNSt7__cxx1118basic_stringstreamIcSt11char_traitsIcESaIcEED1Ev(ptr noundef nonnull align 8 dereferenceable(128) %2) #23
  resume { ptr, i32 } %.pn.pn

29:                                               ; preds = %1
  %30 = tail call noundef ptr @_ZNKSt7__cxx1112basic_stringIcSt11char_traitsIcESaIcEE5c_strEv(ptr noundef nonnull align 8 dereferenceable(32) %4) #23
  ret ptr %30

31:                                               ; preds = %21
  unreachable
}